; Function Attrs: mustprogress nounwind uwtable
define dso_local void @_ZN4llvm18ARMAttributeParser7handlerEmRb(ptr dead_on_unwind noalias writable sret(%"class.llvm::Error") align 8 %0, ptr noundef nonnull align 8 dereferenceable(200) %1, i64 noundef %2, ptr noundef nonnull writeonly align 1 captures(none) dereferenceable(1) initializes((0, 1)) %3) unnamed_addr #0 align 2 {
  store i8 0, ptr %3, align 1
  br label %6

5:                                                ; preds = %6
  %.013.add = add nuw nsw i64 %.013.idx21, 24
  %.not = icmp eq i64 %.013.add, 1056
  br i1 %.not, label %_ZN4llvm12ErrorSuccessD2Ev.exit, label %6

6:                                                ; preds = %4, %5
  %.013.idx21 = phi i64 [ 0, %4 ], [ %.013.add, %5 ]
  %.013.ptr22 = getelementptr inbounds nuw i8, ptr @_ZN4llvm18ARMAttributeParser15displayRoutinesE, i64 %.013.idx21
  %7 = load i32, ptr %.013.ptr22, align 8
  %8 = zext i32 %7 to i64
  %9 = icmp eq i64 %2, %8
  br i1 %9, label %10, label %5

10:                                               ; preds = %6
  %11 = getelementptr inbounds nuw i8, ptr %.013.ptr22, i64 8
  %.unpack = load i64, ptr %11, align 8
  %.elt15 = getelementptr inbounds nuw i8, ptr %.013.ptr22, i64 16
  %.unpack16 = load i64, ptr %.elt15, align 8
  %12 = getelementptr inbounds i8, ptr %1, i64 %.unpack16
  %13 = and i64 %.unpack, 1
  %.not17 = icmp eq i64 %13, 0
  br i1 %.not17, label %19, label %14

14:                                               ; preds = %10
  %15 = load ptr, ptr %12, align 8
  %16 = getelementptr i8, ptr %15, i64 %.unpack
  %17 = getelementptr i8, ptr %16, i64 -1
  %18 = load ptr, ptr %17, align 8, !nosanitize !57
  br label %_ZN4llvm5ErrorD2Ev.exit

19:                                               ; preds = %10
  %20 = inttoptr i64 %.unpack to ptr
  br label %_ZN4llvm5ErrorD2Ev.exit

_ZN4llvm5ErrorD2Ev.exit:                          ; preds = %19, %14
  %21 = phi ptr [ %18, %14 ], [ %20, %19 ]
  %22 = trunc nuw i64 %2 to i32
  tail call void %21(ptr dead_on_unwind writable sret(%"class.llvm::Error") align 8 %0, ptr noundef nonnull align 8 dereferenceable(200) %12, i32 noundef %22) #14
  %23 = load ptr, ptr %0, align 8
  %.not19 = icmp eq ptr %23, null
  br i1 %.not19, label %24, label %25

24:                                               ; preds = %_ZN4llvm5ErrorD2Ev.exit
  store i8 1, ptr %3, align 1
  br label %_ZN4llvm12ErrorSuccessD2Ev.exit

_ZN4llvm12ErrorSuccessD2Ev.exit:                  ; preds = %5, %24
  store ptr null, ptr %0, align 8
  br label %25

25:                                               ; preds = %_ZN4llvm5ErrorD2Ev.exit, %_ZN4llvm12ErrorSuccessD2Ev.exit
  ret void
}